; Function Attrs: mustprogress nounwind uwtable
define dso_local void @_ZN4node6fs_dir9DirHandleD2Ev(ptr noundef nonnull align 8 dereferenceable(90) %this) unnamed_addr #3 align 2 {
entry:
  store ptr getelementptr inbounds ({ [20 x ptr] }, ptr @_ZTVN4node6fs_dir9DirHandleE, i64 0, i32 0, i64 2), ptr %this, align 8
  %closing_ = getelementptr inbounds i8, ptr %this, i64 88
  %0 = load i8, ptr %closing_, align 8
  %1 = and i8 %0, 1
  %tobool.not = icmp eq i8 %1, 0
  br i1 %tobool.not, label %do.end7, label %do.body5

do.body5:                                         ; preds = %entry
  tail call void @_ZN4node6AssertERKNS_13AssertionInfoE(ptr noundef nonnull align 8 dereferenceable(24) @_ZZN4node6fs_dir9DirHandleD1EvE4args) #20
  tail call void @abort() #22
  unreachable

do.end7:                                          ; preds = %entry
  tail call void @_ZN4node6fs_dir9DirHandle7GCCloseEv(ptr noundef nonnull align 8 dereferenceable(90) %this)
  %closed_ = getelementptr inbounds i8, ptr %this, i64 89
  %2 = load i8, ptr %closed_, align 1
  %3 = and i8 %2, 1
  %tobool9.not = icmp eq i8 %3, 0
  br i1 %tobool9.not, label %do.body14, label %do.end19

do.body14:                                        ; preds = %do.end7
  tail call void @_ZN4node6AssertERKNS_13AssertionInfoE(ptr noundef nonnull align 8 dereferenceable(24) @_ZZN4node6fs_dir9DirHandleD1EvE4args_0) #20
  tail call void @abort() #22
  unreachable

do.end19:                                         ; preds = %do.end7
  %dirents_ = getelementptr inbounds i8, ptr %this, i64 64
  %4 = load ptr, ptr %dirents_, align 8
  %tobool.not.i.i.i = icmp eq ptr %4, null
  br i1 %tobool.not.i.i.i, label %_ZNSt6vectorI11uv_dirent_sSaIS0_EED2Ev.exit, label %if.then.i.i.i

if.then.i.i.i:                                    ; preds = %do.end19
  tail call void @_ZdlPv(ptr noundef nonnull %4) #23
  br label %_ZNSt6vectorI11uv_dirent_sSaIS0_EED2Ev.exit

_ZNSt6vectorI11uv_dirent_sSaIS0_EED2Ev.exit:      ; preds = %do.end19, %if.then.i.i.i
  tail call void @_ZN4node9AsyncWrapD2Ev(ptr noundef nonnull align 8 dereferenceable(56) %this) #20
  ret void
}